target datalayout = "e-m:e-p270:32:32-p271:32:32-p272:64:64-i64:64-i128:128-f80:128-n8:16:32:64-S128"
target triple = "x86_64-unknown-linux-gnu"

%"class.node::SigintWatchdog" = type { %"class.node::SigintWatchdogBase", ptr, ptr }
%"class.node::SigintWatchdogBase" = type { ptr }

; Function Attrs: mustprogress nounwind uwtable
define dso_local noundef i32 @_ZN4node14SigintWatchdog12HandleSigintEv(ptr noundef nonnull align 8 dereferenceable(24) %this) unnamed_addr #4 align 2 {
entry:
  %this.addr = alloca ptr, align 8
  store ptr %this, ptr %this.addr, align 8
  %this1 = load ptr, ptr %this.addr, align 8
  %received_signal_ = getelementptr inbounds %"class.node::SigintWatchdog", ptr %this1, i32 0, i32 2
  %0 = load ptr, ptr %received_signal_, align 8
  store i8 1, ptr %0, align 1
  %isolate_ = getelementptr inbounds %"class.node::SigintWatchdog", ptr %this1, i32 0, i32 1
  %1 = load ptr, ptr %isolate_, align 8
  call void @_ZN2v87Isolate18TerminateExecutionEv(ptr noundef nonnull align 1 dereferenceable(1) %1)
  ret i32 1
}