; Function Attrs: mustprogress nounwind uwtable
define dso_local noundef i32 @_ZN4node14SigintWatchdog12HandleSigintEv(ptr nocapture noundef nonnull readonly align 8 dereferenceable(24) %this) unnamed_addr #3 align 2 {
entry:
  %received_signal_ = getelementptr inbounds i8, ptr %this, i64 16
  %0 = load ptr, ptr %received_signal_, align 8
  store i8 1, ptr %0, align 1
  %isolate_ = getelementptr inbounds i8, ptr %this, i64 8
  %1 = load ptr, ptr %isolate_, align 8
  tail call void @_ZN2v87Isolate18TerminateExecutionEv(ptr noundef nonnull align 1 dereferenceable(1) %1) #15
  ret i32 1
}